; Function Attrs: mustprogress nounwind uwtable
define hidden void @_ZN18G1ConcurrentRefine27update_pending_cards_targetEdmmd(ptr nocapture noundef nonnull align 8 dereferenceable(136) %0, double noundef %1, i64 noundef %2, i64 noundef %3, double noundef %4) local_unnamed_addr #0 align 2 {
  %6 = load i32, ptr @ParallelGCThreads, align 4
  %7 = zext i32 %6 to i64
  %8 = load i64, ptr @G1UpdateBufferSize, align 8
  %9 = mul i64 %8, %7
  %10 = icmp ugt i64 %9, %2
  %11 = fcmp oeq double %1, 0.000000e+00
  %or.cond = or i1 %11, %10
  br i1 %or.cond, label %12, label %17

12:                                               ; preds = %5
  %13 = load volatile ptr, ptr getelementptr inbounds (i8, ptr @_ZN16LogTagSetMappingILN6LogTag4typeE49ELS1_40ELS1_127ELS1_0ELS1_0ELS1_0EE7_tagsetE, i64 56), align 8
  %.not18 = icmp eq ptr %13, null
  br i1 %.not18, label %30, label %14

14:                                               ; preds = %12
  %15 = getelementptr inbounds i8, ptr %0, i64 16
  %16 = load i64, ptr %15, align 8
  tail call void (ptr, ...) @_ZN7LogImplILN6LogTag4typeE49ELS1_40ELS1_127ELS1_0ELS1_0ELS1_0EE5writeILN8LogLevel4typeE2EEEvPKcz(ptr noundef nonnull @.str.8, i64 noundef %16)
  br label %30

17:                                               ; preds = %5
  %18 = uitofp i64 %2 to double
  %19 = fdiv double %18, %1
  %20 = fmul double %19, %4
  %21 = fptoui double %20 to i64
  %22 = tail call i64 @llvm.usub.sat.i64(i64 %21, i64 %3)
  %23 = getelementptr inbounds i8, ptr %0, i64 16
  %24 = load i64, ptr %23, align 8
  %.not = icmp eq i64 %24, -1
  %25 = add i64 %24, %22
  %26 = lshr i64 %25, 1
  %.0 = select i1 %.not, i64 %22, i64 %26
  %27 = tail call noundef i64 @llvm.umax.i64(i64 %.0, i64 %9)
  store i64 %27, ptr %23, align 8
  %28 = load volatile ptr, ptr getelementptr inbounds (i8, ptr @_ZN16LogTagSetMappingILN6LogTag4typeE49ELS1_40ELS1_127ELS1_0ELS1_0ELS1_0EE7_tagsetE, i64 56), align 8
  %.not17 = icmp eq ptr %28, null
  br i1 %.not17, label %30, label %29

29:                                               ; preds = %17
  tail call void (ptr, ...) @_ZN7LogImplILN6LogTag4typeE49ELS1_40ELS1_127ELS1_0ELS1_0ELS1_0EE5writeILN8LogLevel4typeE2EEEvPKcz(ptr noundef nonnull @.str.9, i64 noundef %27)
  br label %30

30:                                               ; preds = %17, %14, %12, %29
  ret void
}